; Function Attrs: mustprogress uwtable
define void @ucnv_fixFileSeparator_77(ptr noundef %0, ptr noundef %1, i32 noundef %2) local_unnamed_addr #0 {
  %4 = icmp eq ptr %0, null
  %5 = icmp eq ptr %1, null
  %or.cond = or i1 %4, %5
  %6 = icmp slt i32 %2, 1
  %or.cond3 = or i1 %or.cond, %6
  br i1 %or.cond3, label %_ZL17ucnv_getAmbiguousPK10UConverter.exit.thread, label %7

7:                                                ; preds = %3
  %8 = getelementptr inbounds nuw i8, ptr %0, i64 48
  %9 = load ptr, ptr %8, align 8, !tbaa !8
  %10 = getelementptr inbounds nuw i8, ptr %9, i64 32
  %11 = load ptr, ptr %10, align 8, !tbaa !15
  %12 = getelementptr inbounds nuw i8, ptr %11, i64 96
  %13 = load ptr, ptr %12, align 8, !tbaa !71
  %.not10.i.i = icmp eq ptr %13, null
  br i1 %.not10.i.i, label %16, label %14

14:                                               ; preds = %7
  %15 = tail call noundef ptr %13(ptr noundef nonnull %0)
  %.not11.not.i.i = icmp eq ptr %15, null
  br i1 %.not11.not.i.i, label %._crit_edge.i.i, label %ucnv_getName_77.exit.i

._crit_edge.i.i:                                  ; preds = %14
  %.pre.i.i = load ptr, ptr %8, align 8, !tbaa !8
  br label %16

16:                                               ; preds = %._crit_edge.i.i, %7
  %17 = phi ptr [ %.pre.i.i, %._crit_edge.i.i ], [ %9, %7 ]
  %18 = getelementptr inbounds nuw i8, ptr %17, i64 16
  %19 = load ptr, ptr %18, align 8, !tbaa !44
  %20 = getelementptr inbounds nuw i8, ptr %19, i64 4
  br label %ucnv_getName_77.exit.i

ucnv_getName_77.exit.i:                           ; preds = %16, %14
  %.08.i.i = phi ptr [ %15, %14 ], [ %20, %16 ]
  br label %22

21:                                               ; preds = %22
  %indvars.iv.next.i = add nuw nsw i64 %indvars.iv.i, 1
  %exitcond.not.i = icmp eq i64 %indvars.iv.next.i, 11
  br i1 %exitcond.not.i, label %_ZL17ucnv_getAmbiguousPK10UConverter.exit.thread, label %22, !llvm.loop !111

22:                                               ; preds = %21, %ucnv_getName_77.exit.i
  %indvars.iv.i = phi i64 [ 0, %ucnv_getName_77.exit.i ], [ %indvars.iv.next.i, %21 ]
  %23 = getelementptr inbounds nuw [11 x %struct.UAmbiguousConverter], ptr @_ZL19ambiguousConverters, i64 0, i64 %indvars.iv.i
  %24 = load ptr, ptr %23, align 16, !tbaa !112
  %25 = tail call i32 @strcmp(ptr noundef nonnull dereferenceable(1) %.08.i.i, ptr noundef nonnull dereferenceable(1) %24) #18
  %26 = icmp eq i32 %25, 0
  br i1 %26, label %_ZL17ucnv_getAmbiguousPK10UConverter.exit, label %21

_ZL17ucnv_getAmbiguousPK10UConverter.exit:        ; preds = %22
  %27 = getelementptr inbounds nuw i8, ptr %23, i64 8
  %28 = load i16, ptr %27, align 8, !tbaa !114
  %29 = icmp sgt i32 %2, 0
  br i1 %29, label %.lr.ph.preheader, label %_ZL17ucnv_getAmbiguousPK10UConverter.exit.thread

.lr.ph.preheader:                                 ; preds = %_ZL17ucnv_getAmbiguousPK10UConverter.exit
  %wide.trip.count = zext nneg i32 %2 to i64
  br label %.lr.ph

.lr.ph:                                           ; preds = %.lr.ph.preheader, %34
  %indvars.iv = phi i64 [ 0, %.lr.ph.preheader ], [ %indvars.iv.next, %34 ]
  %30 = getelementptr inbounds nuw i16, ptr %1, i64 %indvars.iv
  %31 = load i16, ptr %30, align 2, !tbaa !88
  %32 = icmp eq i16 %31, %28
  br i1 %32, label %33, label %34

33:                                               ; preds = %.lr.ph
  store i16 92, ptr %30, align 2, !tbaa !88
  br label %34

34:                                               ; preds = %.lr.ph, %33
  %indvars.iv.next = add nuw nsw i64 %indvars.iv, 1
  %exitcond.not = icmp eq i64 %indvars.iv.next, %wide.trip.count
  br i1 %exitcond.not, label %_ZL17ucnv_getAmbiguousPK10UConverter.exit.thread, label %.lr.ph, !llvm.loop !115

_ZL17ucnv_getAmbiguousPK10UConverter.exit.thread: ; preds = %21, %34, %_ZL17ucnv_getAmbiguousPK10UConverter.exit, %3
  ret void
}